target datalayout = "e-m:e-p270:32:32-p271:32:32-p272:64:64-i64:64-i128:128-f80:128-n8:16:32:64-S128"
target triple = "x86_64-pc-linux-gnu"

%struct.quic_conn_st = type { %struct.quic_obj_st, ptr, ptr, ptr, ptr, ptr, ptr, ptr, ptr, %union.bio_addr_st, %struct.quic_thread_assist_st, i64, i16, i32, i32, i64, i32, i64, i32 }
%struct.quic_obj_st = type { %struct.ssl_st, ptr, ptr, ptr, ptr, ptr, i64, i8 }
%struct.ssl_st = type { i32, ptr, ptr, ptr, %struct.CRYPTO_REF_COUNT, ptr, %struct.crypto_ex_data_st }
%struct.CRYPTO_REF_COUNT = type { i32 }
%struct.crypto_ex_data_st = type { ptr, ptr }
%union.bio_addr_st = type { %struct.sockaddr_in6, [84 x i8] }
%struct.sockaddr_in6 = type { i16, i16, i32, %struct.in6_addr, i32 }
%struct.in6_addr = type { %union.anon }
%union.anon = type { [4 x i32] }
%struct.quic_thread_assist_st = type { ptr, ptr, ptr, i32, i32 }

; Function Attrs: nounwind uwtable
define internal void @quic_unref_port_bios(ptr noundef %0) #0 {
  %2 = alloca ptr, align 8
  %3 = alloca ptr, align 8
  store ptr %0, ptr %2, align 8, !tbaa !173
  call void @llvm.lifetime.start.p0(i64 8, ptr %3) #10
  %4 = load ptr, ptr %2, align 8, !tbaa !173
  %5 = call ptr @ossl_quic_port_get_net_rbio(ptr noundef %4)
  store ptr %5, ptr %3, align 8, !tbaa !171
  %6 = load ptr, ptr %3, align 8, !tbaa !171
  call void @BIO_free_all(ptr noundef %6)
  %7 = load ptr, ptr %2, align 8, !tbaa !173
  %8 = call ptr @ossl_quic_port_get_net_wbio(ptr noundef %7)
  store ptr %8, ptr %3, align 8, !tbaa !171
  %9 = load ptr, ptr %3, align 8, !tbaa !171
  call void @BIO_free_all(ptr noundef %9)
  call void @llvm.lifetime.end.p0(i64 8, ptr %3) #10
  ret void
}

; Function Attrs: nounwind uwtable
define internal void @qc_cleanup(ptr noundef %0, i32 noundef %1) #0 {
  %3 = alloca ptr, align 8
  %4 = alloca i32, align 4
  store ptr %0, ptr %3, align 8, !tbaa !8
  store i32 %1, ptr %4, align 4, !tbaa !122
  %5 = load ptr, ptr %3, align 8, !tbaa !8
  %6 = getelementptr inbounds nuw %struct.quic_conn_st, ptr %5, i32 0, i32 1
  %7 = load ptr, ptr %6, align 8, !tbaa !35
  call void @SSL_free(ptr noundef %7)
  %8 = load ptr, ptr %3, align 8, !tbaa !8
  %9 = getelementptr inbounds nuw %struct.quic_conn_st, ptr %8, i32 0, i32 1
  store ptr null, ptr %9, align 8, !tbaa !35
  %10 = load ptr, ptr %3, align 8, !tbaa !8
  %11 = getelementptr inbounds nuw %struct.quic_conn_st, ptr %10, i32 0, i32 6
  %12 = load ptr, ptr %11, align 8, !tbaa !106
  call void @ossl_quic_channel_free(ptr noundef %12)
  %13 = load ptr, ptr %3, align 8, !tbaa !8
  %14 = getelementptr inbounds nuw %struct.quic_conn_st, ptr %13, i32 0, i32 6
  store ptr null, ptr %14, align 8, !tbaa !106
  %15 = load ptr, ptr %3, align 8, !tbaa !8
  %16 = getelementptr inbounds nuw %struct.quic_conn_st, ptr %15, i32 0, i32 5
  %17 = load ptr, ptr %16, align 8, !tbaa !110
  %18 = icmp ne ptr %17, null
  br i1 %18, label %19, label %46

19:                                               ; preds = %2
  %20 = load ptr, ptr %3, align 8, !tbaa !8
  %21 = getelementptr inbounds nuw %struct.quic_conn_st, ptr %20, i32 0, i32 2
  %22 = load ptr, ptr %21, align 8, !tbaa !135
  %23 = icmp eq ptr %22, null
  br i1 %23, label %24, label %46

24:                                               ; preds = %19
  %25 = load ptr, ptr %3, align 8, !tbaa !8
  %26 = getelementptr inbounds nuw %struct.quic_conn_st, ptr %25, i32 0, i32 12
  %27 = load i16, ptr %26, align 8
  %28 = lshr i16 %27, 9
  %29 = and i16 %28, 1
  %30 = zext i16 %29 to i32
  %31 = icmp eq i32 %30, 0
  br i1 %31, label %32, label %46

32:                                               ; preds = %24
  %33 = load ptr, ptr %3, align 8, !tbaa !8
  %34 = getelementptr inbounds nuw %struct.quic_conn_st, ptr %33, i32 0, i32 5
  %35 = load ptr, ptr %34, align 8, !tbaa !110
  call void @quic_unref_port_bios(ptr noundef %35)
  %36 = load ptr, ptr %3, align 8, !tbaa !8
  %37 = getelementptr inbounds nuw %struct.quic_conn_st, ptr %36, i32 0, i32 5
  %38 = load ptr, ptr %37, align 8, !tbaa !110
  call void @ossl_quic_port_free(ptr noundef %38)
  %39 = load ptr, ptr %3, align 8, !tbaa !8
  %40 = getelementptr inbounds nuw %struct.quic_conn_st, ptr %39, i32 0, i32 5
  store ptr null, ptr %40, align 8, !tbaa !110
  %41 = load ptr, ptr %3, align 8, !tbaa !8
  %42 = getelementptr inbounds nuw %struct.quic_conn_st, ptr %41, i32 0, i32 4
  %43 = load ptr, ptr %42, align 8, !tbaa !109
  call void @ossl_quic_engine_free(ptr noundef %43)
  %44 = load ptr, ptr %3, align 8, !tbaa !8
  %45 = getelementptr inbounds nuw %struct.quic_conn_st, ptr %44, i32 0, i32 4
  store ptr null, ptr %45, align 8, !tbaa !109
  br label %46

46:                                               ; preds = %32, %24, %19, %2
  %47 = load i32, ptr %4, align 4, !tbaa !122
  %48 = icmp ne i32 %47, 0
  br i1 %48, label %49, label %53

49:                                               ; preds = %46
  %50 = load ptr, ptr %3, align 8, !tbaa !8
  %51 = getelementptr inbounds nuw %struct.quic_conn_st, ptr %50, i32 0, i32 7
  %52 = load ptr, ptr %51, align 8, !tbaa !12
  call void @ossl_crypto_mutex_unlock(ptr noundef %52)
  br label %53

53:                                               ; preds = %49, %46
  %54 = load ptr, ptr %3, align 8, !tbaa !8
  %55 = getelementptr inbounds nuw %struct.quic_conn_st, ptr %54, i32 0, i32 2
  %56 = load ptr, ptr %55, align 8, !tbaa !135
  %57 = icmp eq ptr %56, null
  br i1 %57, label %58, label %69

58:                                               ; preds = %53
  %59 = load ptr, ptr %3, align 8, !tbaa !8
  %60 = getelementptr inbounds nuw %struct.quic_conn_st, ptr %59, i32 0, i32 12
  %61 = load i16, ptr %60, align 8
  %62 = lshr i16 %61, 9
  %63 = and i16 %62, 1
  %64 = zext i16 %63 to i32
  %65 = icmp eq i32 %64, 0
  br i1 %65, label %66, label %69

66:                                               ; preds = %58
  %67 = load ptr, ptr %3, align 8, !tbaa !8
  %68 = getelementptr inbounds nuw %struct.quic_conn_st, ptr %67, i32 0, i32 7
  call void @ossl_crypto_mutex_free(ptr noundef %68)
  br label %69

69:                                               ; preds = %66, %58, %53
  ret void
}