; Function Attrs: nounwind uwtable
define internal fastcc void @qc_cleanup(ptr noundef %0, i32 noundef range(i32 0, 2) %1) unnamed_addr #0 {
  %3 = getelementptr inbounds nuw i8, ptr %0, i64 120
  %4 = load ptr, ptr %3, align 8, !tbaa !30
  tail call void @SSL_free(ptr noundef %4) #12
  store ptr null, ptr %3, align 8, !tbaa !30
  %5 = getelementptr inbounds nuw i8, ptr %0, i64 160
  %6 = load ptr, ptr %5, align 8, !tbaa !113
  tail call void @ossl_quic_channel_free(ptr noundef %6) #12
  store ptr null, ptr %5, align 8, !tbaa !113
  %7 = getelementptr inbounds nuw i8, ptr %0, i64 152
  %8 = load ptr, ptr %7, align 8, !tbaa !112
  %.not = icmp eq ptr %8, null
  br i1 %.not, label %24, label %9

9:                                                ; preds = %2
  %10 = getelementptr inbounds nuw i8, ptr %0, i64 128
  %11 = load ptr, ptr %10, align 8, !tbaa !135
  %12 = icmp eq ptr %11, null
  br i1 %12, label %13, label %24

13:                                               ; preds = %9
  %14 = getelementptr inbounds nuw i8, ptr %0, i64 336
  %15 = load i16, ptr %14, align 8
  %16 = and i16 %15, 512
  %17 = icmp eq i16 %16, 0
  br i1 %17, label %18, label %24

18:                                               ; preds = %13
  %19 = tail call ptr @ossl_quic_port_get_net_rbio(ptr noundef nonnull %8) #12
  tail call void @BIO_free_all(ptr noundef %19) #12
  %20 = tail call ptr @ossl_quic_port_get_net_wbio(ptr noundef nonnull %8) #12
  tail call void @BIO_free_all(ptr noundef %20) #12
  %21 = load ptr, ptr %7, align 8, !tbaa !112
  tail call void @ossl_quic_port_free(ptr noundef %21) #12
  store ptr null, ptr %7, align 8, !tbaa !112
  %22 = getelementptr inbounds nuw i8, ptr %0, i64 144
  %23 = load ptr, ptr %22, align 8, !tbaa !109
  tail call void @ossl_quic_engine_free(ptr noundef %23) #12
  store ptr null, ptr %22, align 8, !tbaa !109
  br label %24

24:                                               ; preds = %18, %13, %9, %2
  %.not16 = icmp eq i32 %1, 0
  br i1 %.not16, label %28, label %25

25:                                               ; preds = %24
  %26 = getelementptr inbounds nuw i8, ptr %0, i64 168
  %27 = load ptr, ptr %26, align 8, !tbaa !3
  tail call void @ossl_crypto_mutex_unlock(ptr noundef %27) #12
  br label %28

28:                                               ; preds = %25, %24
  %29 = getelementptr inbounds nuw i8, ptr %0, i64 128
  %30 = load ptr, ptr %29, align 8, !tbaa !135
  %31 = icmp eq ptr %30, null
  br i1 %31, label %32, label %39

32:                                               ; preds = %28
  %33 = getelementptr inbounds nuw i8, ptr %0, i64 336
  %34 = load i16, ptr %33, align 8
  %35 = and i16 %34, 512
  %36 = icmp eq i16 %35, 0
  br i1 %36, label %37, label %39

37:                                               ; preds = %32
  %38 = getelementptr inbounds nuw i8, ptr %0, i64 168
  tail call void @ossl_crypto_mutex_free(ptr noundef nonnull %38) #12
  br label %39

39:                                               ; preds = %37, %32, %28
  ret void
}